target datalayout = "e-m:e-p270:32:32-p271:32:32-p272:64:64-i64:64-i128:128-f80:128-n8:16:32:64-S128"
target triple = "x86_64-unknown-linux-gnu"

%"class.std::__cxx11::basic_string" = type { %"struct.std::__cxx11::basic_string<char>::_Alloc_hider", i64, %union.anon }
%"struct.std::__cxx11::basic_string<char>::_Alloc_hider" = type { ptr }
%union.anon = type { i64, [8 x i8] }
%"class.net::AeadBaseDecrypter" = type { %"class.net::QuicDecrypter", ptr, i64, i64, i64, i8, [32 x i8], [4 x i8], %"class.net::ScopedEVPAEADCtx" }
%"class.net::QuicDecrypter" = type { ptr }
%"class.net::ScopedEVPAEADCtx" = type { %struct.evp_aead_ctx_st }
%struct.evp_aead_ctx_st = type { ptr, ptr }
%"class.base::BasicStringPiece" = type { ptr, i64 }

; Function Attrs: mustprogress uwtable
define dso_local noundef zeroext i1 @_ZN3net17AeadBaseDecrypter23SetDiversificationNonceERKSt5arrayIcLm32EE(ptr noundef nonnull align 8 dereferenceable(96) %this, ptr noundef nonnull align 1 %nonce) unnamed_addr #0 align 2 personality ptr @__gxx_personality_v0 {
entry:
  %retval = alloca i1, align 1
  %this.addr = alloca ptr, align 8
  %nonce.addr = alloca ptr, align 8
  %key = alloca %"class.std::__cxx11::basic_string", align 8
  %nonce_prefix = alloca %"class.std::__cxx11::basic_string", align 8
  %agg.tmp = alloca %"class.base::BasicStringPiece", align 8
  %exn.slot = alloca ptr, align 8
  %ehselector.slot = alloca i32, align 4
  %agg.tmp2 = alloca %"class.base::BasicStringPiece", align 8
  %agg.tmp8 = alloca %"class.base::BasicStringPiece", align 8
  %agg.tmp11 = alloca %"class.base::BasicStringPiece", align 8
  %cleanup.dest.slot = alloca i32, align 4
  store ptr %this, ptr %this.addr, align 8
  store ptr %nonce, ptr %nonce.addr, align 8
  %this1 = load ptr, ptr %this.addr, align 8
  %have_preliminary_key_ = getelementptr inbounds %"class.net::AeadBaseDecrypter", ptr %this1, i32 0, i32 5
  %0 = load i8, ptr %have_preliminary_key_, align 8
  %tobool = trunc i8 %0 to i1
  br i1 %tobool, label %if.end, label %if.then

if.then:                                          ; preds = %entry
  store i1 true, ptr %retval, align 1
  br label %return

if.end:                                           ; preds = %entry
  call void @_ZNSt7__cxx1112basic_stringIcSt11char_traitsIcESaIcEEC1Ev(ptr noundef nonnull align 8 dereferenceable(32) %key) #6
  call void @_ZNSt7__cxx1112basic_stringIcSt11char_traitsIcESaIcEEC1Ev(ptr noundef nonnull align 8 dereferenceable(32) %nonce_prefix) #6
  %key_ = getelementptr inbounds %"class.net::AeadBaseDecrypter", ptr %this1, i32 0, i32 6
  %arraydecay = getelementptr inbounds [32 x i8], ptr %key_, i64 0, i64 0
  %key_size_ = getelementptr inbounds %"class.net::AeadBaseDecrypter", ptr %this1, i32 0, i32 2
  %1 = load i64, ptr %key_size_, align 8
  invoke void @_ZN4base16BasicStringPieceINSt7__cxx1112basic_stringIcSt11char_traitsIcESaIcEEEEC1EPKcm(ptr noundef nonnull align 8 dereferenceable(16) %agg.tmp, ptr noundef %arraydecay, i64 noundef %1)
          to label %invoke.cont unwind label %lpad

invoke.cont:                                      ; preds = %if.end
  %nonce_prefix_ = getelementptr inbounds %"class.net::AeadBaseDecrypter", ptr %this1, i32 0, i32 7
  %arraydecay3 = getelementptr inbounds [4 x i8], ptr %nonce_prefix_, i64 0, i64 0
  %nonce_prefix_size_ = getelementptr inbounds %"class.net::AeadBaseDecrypter", ptr %this1, i32 0, i32 4
  %2 = load i64, ptr %nonce_prefix_size_, align 8
  invoke void @_ZN4base16BasicStringPieceINSt7__cxx1112basic_stringIcSt11char_traitsIcESaIcEEEEC1EPKcm(ptr noundef nonnull align 8 dereferenceable(16) %agg.tmp2, ptr noundef %arraydecay3, i64 noundef %2)
          to label %invoke.cont4 unwind label %lpad

invoke.cont4:                                     ; preds = %invoke.cont
  %3 = load ptr, ptr %nonce.addr, align 8
  %key_size_5 = getelementptr inbounds %"class.net::AeadBaseDecrypter", ptr %this1, i32 0, i32 2
  %4 = load i64, ptr %key_size_5, align 8
  %nonce_prefix_size_6 = getelementptr inbounds %"class.net::AeadBaseDecrypter", ptr %this1, i32 0, i32 4
  %5 = load i64, ptr %nonce_prefix_size_6, align 8
  %6 = getelementptr inbounds { ptr, i64 }, ptr %agg.tmp, i32 0, i32 0
  %7 = load ptr, ptr %6, align 8
  %8 = getelementptr inbounds { ptr, i64 }, ptr %agg.tmp, i32 0, i32 1
  %9 = load i64, ptr %8, align 8
  %10 = getelementptr inbounds { ptr, i64 }, ptr %agg.tmp2, i32 0, i32 0
  %11 = load ptr, ptr %10, align 8
  %12 = getelementptr inbounds { ptr, i64 }, ptr %agg.tmp2, i32 0, i32 1
  %13 = load i64, ptr %12, align 8
  invoke void @_ZN3net13QuicDecrypter23DiversifyPreliminaryKeyEN4base16BasicStringPieceINSt7__cxx1112basic_stringIcSt11char_traitsIcESaIcEEEEES9_RKSt5arrayIcLm32EEmmPS8_SE_(ptr %7, i64 %9, ptr %11, i64 %13, ptr noundef nonnull align 1 %3, i64 noundef %4, i64 noundef %5, ptr noundef %key, ptr noundef %nonce_prefix)
          to label %invoke.cont7 unwind label %lpad

invoke.cont7:                                     ; preds = %invoke.cont4
  invoke void @_ZN4base16BasicStringPieceINSt7__cxx1112basic_stringIcSt11char_traitsIcESaIcEEEEC1ERKS6_(ptr noundef nonnull align 8 dereferenceable(16) %agg.tmp8, ptr noundef nonnull align 8 dereferenceable(32) %key)
          to label %invoke.cont9 unwind label %lpad

invoke.cont9:                                     ; preds = %invoke.cont7
  %14 = getelementptr inbounds { ptr, i64 }, ptr %agg.tmp8, i32 0, i32 0
  %15 = load ptr, ptr %14, align 8
  %16 = getelementptr inbounds { ptr, i64 }, ptr %agg.tmp8, i32 0, i32 1
  %17 = load i64, ptr %16, align 8
  %vtable = load ptr, ptr %this1, align 8
  %vfn = getelementptr inbounds ptr, ptr %vtable, i64 2
  %18 = load ptr, ptr %vfn, align 8
  %call = invoke noundef zeroext i1 %18(ptr noundef nonnull align 8 dereferenceable(96) %this1, ptr %15, i64 %17)
          to label %invoke.cont10 unwind label %lpad

invoke.cont10:                                    ; preds = %invoke.cont9
  br i1 %call, label %lor.lhs.false, label %if.then17

lor.lhs.false:                                    ; preds = %invoke.cont10
  invoke void @_ZN4base16BasicStringPieceINSt7__cxx1112basic_stringIcSt11char_traitsIcESaIcEEEEC1ERKS6_(ptr noundef nonnull align 8 dereferenceable(16) %agg.tmp11, ptr noundef nonnull align 8 dereferenceable(32) %nonce_prefix)
          to label %invoke.cont12 unwind label %lpad

invoke.cont12:                                    ; preds = %lor.lhs.false
  %19 = getelementptr inbounds { ptr, i64 }, ptr %agg.tmp11, i32 0, i32 0
  %20 = load ptr, ptr %19, align 8
  %21 = getelementptr inbounds { ptr, i64 }, ptr %agg.tmp11, i32 0, i32 1
  %22 = load i64, ptr %21, align 8
  %vtable13 = load ptr, ptr %this1, align 8
  %vfn14 = getelementptr inbounds ptr, ptr %vtable13, i64 3
  %23 = load ptr, ptr %vfn14, align 8
  %call16 = invoke noundef zeroext i1 %23(ptr noundef nonnull align 8 dereferenceable(96) %this1, ptr %20, i64 %22)
          to label %invoke.cont15 unwind label %lpad

invoke.cont15:                                    ; preds = %invoke.cont12
  br i1 %call16, label %if.end18, label %if.then17

if.then17:                                        ; preds = %invoke.cont15, %invoke.cont10
  store i1 false, ptr %retval, align 1
  store i32 1, ptr %cleanup.dest.slot, align 4
  br label %cleanup

lpad:                                             ; preds = %invoke.cont12, %lor.lhs.false, %invoke.cont9, %invoke.cont7, %invoke.cont4, %invoke.cont, %if.end
  %24 = landingpad { ptr, i32 }
          cleanup
  %25 = extractvalue { ptr, i32 } %24, 0
  store ptr %25, ptr %exn.slot, align 8
  %26 = extractvalue { ptr, i32 } %24, 1
  store i32 %26, ptr %ehselector.slot, align 4
  call void @_ZNSt7__cxx1112basic_stringIcSt11char_traitsIcESaIcEED1Ev(ptr noundef nonnull align 8 dereferenceable(32) %nonce_prefix) #6
  call void @_ZNSt7__cxx1112basic_stringIcSt11char_traitsIcESaIcEED1Ev(ptr noundef nonnull align 8 dereferenceable(32) %key) #6
  br label %eh.resume

if.end18:                                         ; preds = %invoke.cont15
  %have_preliminary_key_19 = getelementptr inbounds %"class.net::AeadBaseDecrypter", ptr %this1, i32 0, i32 5
  store i8 0, ptr %have_preliminary_key_19, align 8
  store i1 true, ptr %retval, align 1
  store i32 1, ptr %cleanup.dest.slot, align 4
  br label %cleanup

cleanup:                                          ; preds = %if.end18, %if.then17
  call void @_ZNSt7__cxx1112basic_stringIcSt11char_traitsIcESaIcEED1Ev(ptr noundef nonnull align 8 dereferenceable(32) %nonce_prefix) #6
  call void @_ZNSt7__cxx1112basic_stringIcSt11char_traitsIcESaIcEED1Ev(ptr noundef nonnull align 8 dereferenceable(32) %key) #6
  br label %return

return:                                           ; preds = %cleanup, %if.then
  %27 = load i1, ptr %retval, align 1
  ret i1 %27

eh.resume:                                        ; preds = %lpad
  %exn = load ptr, ptr %exn.slot, align 8
  %sel = load i32, ptr %ehselector.slot, align 4
  %lpad.val = insertvalue { ptr, i32 } poison, ptr %exn, 0
  %lpad.val21 = insertvalue { ptr, i32 } %lpad.val, i32 %sel, 1
  resume { ptr, i32 } %lpad.val21
}