; Function Attrs: mustprogress uwtable
define dso_local noundef zeroext i1 @_ZN3net17AeadBaseDecrypter23SetDiversificationNonceERKSt5arrayIcLm32EE(ptr noundef nonnull align 8 dereferenceable(96) %this, ptr noundef nonnull align 1 %nonce) unnamed_addr #0 align 2 personality ptr @__gxx_personality_v0 {
entry:
  %key = alloca %"class.std::__cxx11::basic_string", align 8
  %nonce_prefix = alloca %"class.std::__cxx11::basic_string", align 8
  %agg.tmp = alloca %"class.base::BasicStringPiece", align 8
  %agg.tmp2 = alloca %"class.base::BasicStringPiece", align 8
  %agg.tmp8 = alloca %"class.base::BasicStringPiece", align 8
  %agg.tmp11 = alloca %"class.base::BasicStringPiece", align 8
  %have_preliminary_key_ = getelementptr inbounds i8, ptr %this, i64 40
  %0 = load i8, ptr %have_preliminary_key_, align 8
  %1 = and i8 %0, 1
  %tobool.not = icmp eq i8 %1, 0
  br i1 %tobool.not, label %return, label %if.end

if.end:                                           ; preds = %entry
  call void @_ZNSt7__cxx1112basic_stringIcSt11char_traitsIcESaIcEEC1Ev(ptr noundef nonnull align 8 dereferenceable(32) %key) #7
  call void @_ZNSt7__cxx1112basic_stringIcSt11char_traitsIcESaIcEEC1Ev(ptr noundef nonnull align 8 dereferenceable(32) %nonce_prefix) #7
  %key_ = getelementptr inbounds i8, ptr %this, i64 41
  %key_size_ = getelementptr inbounds i8, ptr %this, i64 16
  %2 = load i64, ptr %key_size_, align 8
  invoke void @_ZN4base16BasicStringPieceINSt7__cxx1112basic_stringIcSt11char_traitsIcESaIcEEEEC1EPKcm(ptr noundef nonnull align 8 dereferenceable(16) %agg.tmp, ptr noundef nonnull %key_, i64 noundef %2)
          to label %invoke.cont unwind label %lpad

invoke.cont:                                      ; preds = %if.end
  %nonce_prefix_ = getelementptr inbounds i8, ptr %this, i64 73
  %nonce_prefix_size_ = getelementptr inbounds i8, ptr %this, i64 32
  %3 = load i64, ptr %nonce_prefix_size_, align 8
  invoke void @_ZN4base16BasicStringPieceINSt7__cxx1112basic_stringIcSt11char_traitsIcESaIcEEEEC1EPKcm(ptr noundef nonnull align 8 dereferenceable(16) %agg.tmp2, ptr noundef nonnull %nonce_prefix_, i64 noundef %3)
          to label %invoke.cont4 unwind label %lpad

invoke.cont4:                                     ; preds = %invoke.cont
  %4 = load i64, ptr %key_size_, align 8
  %5 = load i64, ptr %nonce_prefix_size_, align 8
  %6 = load ptr, ptr %agg.tmp, align 8
  %7 = getelementptr inbounds i8, ptr %agg.tmp, i64 8
  %8 = load i64, ptr %7, align 8
  %9 = load ptr, ptr %agg.tmp2, align 8
  %10 = getelementptr inbounds i8, ptr %agg.tmp2, i64 8
  %11 = load i64, ptr %10, align 8
  invoke void @_ZN3net13QuicDecrypter23DiversifyPreliminaryKeyEN4base16BasicStringPieceINSt7__cxx1112basic_stringIcSt11char_traitsIcESaIcEEEEES9_RKSt5arrayIcLm32EEmmPS8_SE_(ptr %6, i64 %8, ptr %9, i64 %11, ptr noundef nonnull align 1 %nonce, i64 noundef %4, i64 noundef %5, ptr noundef nonnull %key, ptr noundef nonnull %nonce_prefix)
          to label %invoke.cont7 unwind label %lpad

invoke.cont7:                                     ; preds = %invoke.cont4
  invoke void @_ZN4base16BasicStringPieceINSt7__cxx1112basic_stringIcSt11char_traitsIcESaIcEEEEC1ERKS6_(ptr noundef nonnull align 8 dereferenceable(16) %agg.tmp8, ptr noundef nonnull align 8 dereferenceable(32) %key)
          to label %invoke.cont9 unwind label %lpad

invoke.cont9:                                     ; preds = %invoke.cont7
  %12 = load ptr, ptr %agg.tmp8, align 8
  %13 = getelementptr inbounds i8, ptr %agg.tmp8, i64 8
  %14 = load i64, ptr %13, align 8
  %vtable = load ptr, ptr %this, align 8
  %vfn = getelementptr inbounds i8, ptr %vtable, i64 16
  %15 = load ptr, ptr %vfn, align 8
  %call = invoke noundef zeroext i1 %15(ptr noundef nonnull align 8 dereferenceable(96) %this, ptr %12, i64 %14)
          to label %invoke.cont10 unwind label %lpad

invoke.cont10:                                    ; preds = %invoke.cont9
  br i1 %call, label %lor.lhs.false, label %cleanup

lor.lhs.false:                                    ; preds = %invoke.cont10
  invoke void @_ZN4base16BasicStringPieceINSt7__cxx1112basic_stringIcSt11char_traitsIcESaIcEEEEC1ERKS6_(ptr noundef nonnull align 8 dereferenceable(16) %agg.tmp11, ptr noundef nonnull align 8 dereferenceable(32) %nonce_prefix)
          to label %invoke.cont12 unwind label %lpad

invoke.cont12:                                    ; preds = %lor.lhs.false
  %16 = load ptr, ptr %agg.tmp11, align 8
  %17 = getelementptr inbounds i8, ptr %agg.tmp11, i64 8
  %18 = load i64, ptr %17, align 8
  %vtable13 = load ptr, ptr %this, align 8
  %vfn14 = getelementptr inbounds i8, ptr %vtable13, i64 24
  %19 = load ptr, ptr %vfn14, align 8
  %call16 = invoke noundef zeroext i1 %19(ptr noundef nonnull align 8 dereferenceable(96) %this, ptr %16, i64 %18)
          to label %invoke.cont15 unwind label %lpad

invoke.cont15:                                    ; preds = %invoke.cont12
  br i1 %call16, label %if.end18, label %cleanup

lpad:                                             ; preds = %invoke.cont12, %lor.lhs.false, %invoke.cont9, %invoke.cont7, %invoke.cont4, %invoke.cont, %if.end
  %20 = landingpad { ptr, i32 }
          cleanup
  call void @_ZNSt7__cxx1112basic_stringIcSt11char_traitsIcESaIcEED1Ev(ptr noundef nonnull align 8 dereferenceable(32) %nonce_prefix) #7
  call void @_ZNSt7__cxx1112basic_stringIcSt11char_traitsIcESaIcEED1Ev(ptr noundef nonnull align 8 dereferenceable(32) %key) #7
  resume { ptr, i32 } %20

if.end18:                                         ; preds = %invoke.cont15
  store i8 0, ptr %have_preliminary_key_, align 8
  br label %cleanup

cleanup:                                          ; preds = %invoke.cont10, %invoke.cont15, %if.end18
  %retval.0 = phi i1 [ true, %if.end18 ], [ false, %invoke.cont15 ], [ false, %invoke.cont10 ]
  call void @_ZNSt7__cxx1112basic_stringIcSt11char_traitsIcESaIcEED1Ev(ptr noundef nonnull align 8 dereferenceable(32) %nonce_prefix) #7
  call void @_ZNSt7__cxx1112basic_stringIcSt11char_traitsIcESaIcEED1Ev(ptr noundef nonnull align 8 dereferenceable(32) %key) #7
  br label %return

return:                                           ; preds = %entry, %cleanup
  %retval.1 = phi i1 [ %retval.0, %cleanup ], [ true, %entry ]
  ret i1 %retval.1
}